target datalayout = "e-m:e-p270:32:32-p271:32:32-p272:64:64-i64:64-i128:128-f80:128-n8:16:32:64-S128"
target triple = "x86_64-pc-linux-gnu"

@.str = private unnamed_addr constant [30 x i8] c"../openssl/crypto/ct/ct_b64.c\00", align 1
@__func__.SCT_new_from_base64 = private unnamed_addr constant [20 x i8] c"SCT_new_from_base64\00", align 1

; Function Attrs: nounwind uwtable
define ptr @SCT_new_from_base64(i8 noundef zeroext %0, ptr noundef %1, i32 noundef %2, i64 noundef %3, ptr noundef %4, ptr noundef %5) #0 {
  %7 = alloca ptr, align 8
  %8 = alloca i8, align 1
  %9 = alloca ptr, align 8
  %10 = alloca i32, align 4
  %11 = alloca i64, align 8
  %12 = alloca ptr, align 8
  %13 = alloca ptr, align 8
  %14 = alloca ptr, align 8
  %15 = alloca ptr, align 8
  %16 = alloca ptr, align 8
  %17 = alloca i32, align 4
  %18 = alloca i32, align 4
  store i8 %0, ptr %8, align 1, !tbaa !3
  store ptr %1, ptr %9, align 8, !tbaa !6
  store i32 %2, ptr %10, align 4, !tbaa !9
  store i64 %3, ptr %11, align 8, !tbaa !11
  store ptr %4, ptr %12, align 8, !tbaa !6
  store ptr %5, ptr %13, align 8, !tbaa !6
  call void @llvm.lifetime.start.p0(i64 8, ptr %14) #4
  %19 = call ptr @SCT_new()
  store ptr %19, ptr %14, align 8, !tbaa !13
  call void @llvm.lifetime.start.p0(i64 8, ptr %15) #4
  store ptr null, ptr %15, align 8, !tbaa !6
  call void @llvm.lifetime.start.p0(i64 8, ptr %16) #4
  store ptr null, ptr %16, align 8, !tbaa !6
  call void @llvm.lifetime.start.p0(i64 4, ptr %17) #4
  %20 = load ptr, ptr %14, align 8, !tbaa !13
  %21 = icmp eq ptr %20, null
  br i1 %21, label %22, label %23

22:                                               ; preds = %6
  call void @ERR_new()
  call void @ERR_set_debug(ptr noundef @.str, i32 noundef 72, ptr noundef @__func__.SCT_new_from_base64)
  call void (i32, i32, ptr, ...) @ERR_set_error(i32 noundef 50, i32 noundef 524338, ptr noundef null)
  store ptr null, ptr %7, align 8
  store i32 1, ptr %18, align 4
  br label %82

23:                                               ; preds = %6
  %24 = load ptr, ptr %14, align 8, !tbaa !13
  %25 = load i8, ptr %8, align 1, !tbaa !3
  %26 = zext i8 %25 to i32
  %27 = call i32 @SCT_set_version(ptr noundef %24, i32 noundef %26)
  %28 = icmp ne i32 %27, 0
  br i1 %28, label %30, label %29

29:                                               ; preds = %23
  call void @ERR_new()
  call void @ERR_set_debug(ptr noundef @.str, i32 noundef 81, ptr noundef @__func__.SCT_new_from_base64)
  call void (i32, i32, ptr, ...) @ERR_set_error(i32 noundef 50, i32 noundef 115, ptr noundef null)
  br label %79

30:                                               ; preds = %23
  %31 = load ptr, ptr %9, align 8, !tbaa !6
  %32 = call i32 @ct_base64_decode(ptr noundef %31, ptr noundef %15)
  store i32 %32, ptr %17, align 4, !tbaa !9
  %33 = load i32, ptr %17, align 4, !tbaa !9
  %34 = icmp slt i32 %33, 0
  br i1 %34, label %35, label %36

35:                                               ; preds = %30
  call void @ERR_new()
  call void @ERR_set_debug(ptr noundef @.str, i32 noundef 87, ptr noundef @__func__.SCT_new_from_base64)
  call void (i32, i32, ptr, ...) @ERR_set_error(i32 noundef 50, i32 noundef 118, ptr noundef null)
  br label %79

36:                                               ; preds = %30
  %37 = load ptr, ptr %14, align 8, !tbaa !13
  %38 = load ptr, ptr %15, align 8, !tbaa !6
  %39 = load i32, ptr %17, align 4, !tbaa !9
  %40 = sext i32 %39 to i64
  %41 = call i32 @SCT_set0_log_id(ptr noundef %37, ptr noundef %38, i64 noundef %40)
  %42 = icmp ne i32 %41, 0
  br i1 %42, label %44, label %43

43:                                               ; preds = %36
  br label %79

44:                                               ; preds = %36
  store ptr null, ptr %15, align 8, !tbaa !6
  %45 = load ptr, ptr %12, align 8, !tbaa !6
  %46 = call i32 @ct_base64_decode(ptr noundef %45, ptr noundef %15)
  store i32 %46, ptr %17, align 4, !tbaa !9
  %47 = load i32, ptr %17, align 4, !tbaa !9
  %48 = icmp slt i32 %47, 0
  br i1 %48, label %49, label %50

49:                                               ; preds = %44
  call void @ERR_new()
  call void @ERR_set_debug(ptr noundef @.str, i32 noundef 96, ptr noundef @__func__.SCT_new_from_base64)
  call void (i32, i32, ptr, ...) @ERR_set_error(i32 noundef 50, i32 noundef 118, ptr noundef null)
  br label %79

50:                                               ; preds = %44
  %51 = load ptr, ptr %14, align 8, !tbaa !13
  %52 = load ptr, ptr %15, align 8, !tbaa !6
  %53 = load i32, ptr %17, align 4, !tbaa !9
  %54 = sext i32 %53 to i64
  call void @SCT_set0_extensions(ptr noundef %51, ptr noundef %52, i64 noundef %54)
  store ptr null, ptr %15, align 8, !tbaa !6
  %55 = load ptr, ptr %13, align 8, !tbaa !6
  %56 = call i32 @ct_base64_decode(ptr noundef %55, ptr noundef %15)
  store i32 %56, ptr %17, align 4, !tbaa !9
  %57 = load i32, ptr %17, align 4, !tbaa !9
  %58 = icmp slt i32 %57, 0
  br i1 %58, label %59, label %60

59:                                               ; preds = %50
  call void @ERR_new()
  call void @ERR_set_debug(ptr noundef @.str, i32 noundef 104, ptr noundef @__func__.SCT_new_from_base64)
  call void (i32, i32, ptr, ...) @ERR_set_error(i32 noundef 50, i32 noundef 118, ptr noundef null)
  br label %79

60:                                               ; preds = %50
  %61 = load ptr, ptr %15, align 8, !tbaa !6
  store ptr %61, ptr %16, align 8, !tbaa !6
  %62 = load ptr, ptr %14, align 8, !tbaa !13
  %63 = load i32, ptr %17, align 4, !tbaa !9
  %64 = sext i32 %63 to i64
  %65 = call i32 @o2i_SCT_signature(ptr noundef %62, ptr noundef %16, i64 noundef %64)
  %66 = icmp sle i32 %65, 0
  br i1 %66, label %67, label %68

67:                                               ; preds = %60
  br label %79

68:                                               ; preds = %60
  %69 = load ptr, ptr %15, align 8, !tbaa !6
  call void @CRYPTO_free(ptr noundef %69, ptr noundef @.str, i32 noundef 111)
  store ptr null, ptr %15, align 8, !tbaa !6
  %70 = load ptr, ptr %14, align 8, !tbaa !13
  %71 = load i64, ptr %11, align 8, !tbaa !11
  call void @SCT_set_timestamp(ptr noundef %70, i64 noundef %71)
  %72 = load ptr, ptr %14, align 8, !tbaa !13
  %73 = load i32, ptr %10, align 4, !tbaa !9
  %74 = call i32 @SCT_set_log_entry_type(ptr noundef %72, i32 noundef %73)
  %75 = icmp ne i32 %74, 0
  br i1 %75, label %77, label %76

76:                                               ; preds = %68
  br label %79

77:                                               ; preds = %68
  %78 = load ptr, ptr %14, align 8, !tbaa !13
  store ptr %78, ptr %7, align 8
  store i32 1, ptr %18, align 4
  br label %82

79:                                               ; preds = %76, %67, %59, %49, %43, %35, %29
  %80 = load ptr, ptr %15, align 8, !tbaa !6
  call void @CRYPTO_free(ptr noundef %80, ptr noundef @.str, i32 noundef 122)
  %81 = load ptr, ptr %14, align 8, !tbaa !13
  call void @SCT_free(ptr noundef %81)
  store ptr null, ptr %7, align 8
  store i32 1, ptr %18, align 4
  br label %82

82:                                               ; preds = %79, %77, %22
  call void @llvm.lifetime.end.p0(i64 4, ptr %17) #4
  call void @llvm.lifetime.end.p0(i64 8, ptr %16) #4
  call void @llvm.lifetime.end.p0(i64 8, ptr %15) #4
  call void @llvm.lifetime.end.p0(i64 8, ptr %14) #4
  %83 = load ptr, ptr %7, align 8
  ret ptr %83
}