; Function Attrs: nounwind uwtable
define ptr @SCT_new_from_base64(i8 noundef zeroext %0, ptr noundef %1, i32 noundef %2, i64 noundef %3, ptr noundef %4, ptr noundef %5) local_unnamed_addr #0 {
  %7 = alloca ptr, align 8
  %8 = alloca ptr, align 8
  %9 = tail call ptr @SCT_new() #4
  call void @llvm.lifetime.start.p0(i64 8, ptr nonnull %7) #4
  store ptr null, ptr %7, align 8, !tbaa !3
  call void @llvm.lifetime.start.p0(i64 8, ptr nonnull %8) #4
  store ptr null, ptr %8, align 8, !tbaa !3
  %10 = icmp eq ptr %9, null
  br i1 %10, label %11, label %12

11:                                               ; preds = %6
  tail call void @ERR_new() #4
  tail call void @ERR_set_debug(ptr noundef nonnull @.str, i32 noundef 72, ptr noundef nonnull @__func__.SCT_new_from_base64) #4
  tail call void (i32, i32, ptr, ...) @ERR_set_error(i32 noundef 50, i32 noundef 524338, ptr noundef null) #4
  br label %39

12:                                               ; preds = %6
  %13 = zext i8 %0 to i32
  %14 = tail call i32 @SCT_set_version(ptr noundef nonnull %9, i32 noundef %13) #4
  %.not = icmp eq i32 %14, 0
  br i1 %.not, label %.sink.split, label %15

15:                                               ; preds = %12
  %16 = call fastcc i32 @ct_base64_decode(ptr noundef %1, ptr noundef %7)
  %17 = icmp slt i32 %16, 0
  br i1 %17, label %.sink.split, label %18

18:                                               ; preds = %15
  %19 = load ptr, ptr %7, align 8, !tbaa !3
  %20 = zext nneg i32 %16 to i64
  %21 = tail call i32 @SCT_set0_log_id(ptr noundef nonnull %9, ptr noundef %19, i64 noundef %20) #4
  %.not25 = icmp eq i32 %21, 0
  br i1 %.not25, label %37, label %22

22:                                               ; preds = %18
  store ptr null, ptr %7, align 8, !tbaa !3
  %23 = call fastcc i32 @ct_base64_decode(ptr noundef %4, ptr noundef %7)
  %24 = icmp slt i32 %23, 0
  br i1 %24, label %.sink.split, label %25

25:                                               ; preds = %22
  %26 = load ptr, ptr %7, align 8, !tbaa !3
  %27 = zext nneg i32 %23 to i64
  tail call void @SCT_set0_extensions(ptr noundef nonnull %9, ptr noundef %26, i64 noundef %27) #4
  store ptr null, ptr %7, align 8, !tbaa !3
  %28 = call fastcc i32 @ct_base64_decode(ptr noundef %5, ptr noundef %7)
  %29 = icmp slt i32 %28, 0
  br i1 %29, label %.sink.split, label %30

30:                                               ; preds = %25
  %31 = load ptr, ptr %7, align 8, !tbaa !3
  store ptr %31, ptr %8, align 8, !tbaa !3
  %32 = zext nneg i32 %28 to i64
  %33 = call i32 @o2i_SCT_signature(ptr noundef nonnull %9, ptr noundef nonnull %8, i64 noundef %32) #4
  %34 = icmp slt i32 %33, 1
  br i1 %34, label %37, label %35

35:                                               ; preds = %30
  call void @CRYPTO_free(ptr noundef %31, ptr noundef nonnull @.str, i32 noundef 111) #4
  store ptr null, ptr %7, align 8, !tbaa !3
  call void @SCT_set_timestamp(ptr noundef nonnull %9, i64 noundef %3) #4
  %36 = call i32 @SCT_set_log_entry_type(ptr noundef nonnull %9, i32 noundef %2) #4
  %.not26 = icmp eq i32 %36, 0
  br i1 %.not26, label %37, label %39

.sink.split:                                      ; preds = %25, %22, %15, %12
  %.sink27 = phi i32 [ 81, %12 ], [ 87, %15 ], [ 96, %22 ], [ 104, %25 ]
  %.sink = phi i32 [ 115, %12 ], [ 118, %15 ], [ 118, %22 ], [ 118, %25 ]
  tail call void @ERR_new() #4
  tail call void @ERR_set_debug(ptr noundef nonnull @.str, i32 noundef %.sink27, ptr noundef nonnull @__func__.SCT_new_from_base64) #4
  tail call void (i32, i32, ptr, ...) @ERR_set_error(i32 noundef 50, i32 noundef %.sink, ptr noundef null) #4
  br label %37

37:                                               ; preds = %.sink.split, %35, %30, %18
  %38 = load ptr, ptr %7, align 8, !tbaa !3
  call void @CRYPTO_free(ptr noundef %38, ptr noundef nonnull @.str, i32 noundef 122) #4
  call void @SCT_free(ptr noundef nonnull %9) #4
  br label %39

39:                                               ; preds = %35, %37, %11
  %.0 = phi ptr [ null, %11 ], [ null, %37 ], [ %9, %35 ]
  call void @llvm.lifetime.end.p0(i64 8, ptr nonnull %8) #4
  call void @llvm.lifetime.end.p0(i64 8, ptr nonnull %7) #4
  ret ptr %.0
}